target datalayout = "e-m:e-p270:32:32-p271:32:32-p272:64:64-i64:64-i128:128-f80:128-n8:16:32:64-S128"
target triple = "x86_64-unknown-linux-gnu"

%struct.DSA_SIG_st = type { ptr, ptr }

; Function Attrs: nounwind uwtable
define hidden void @DSA_SIG_free(ptr noundef %sig) #0 {
entry:
  %sig.addr = alloca ptr, align 8
  store ptr %sig, ptr %sig.addr, align 8
  %0 = load ptr, ptr %sig.addr, align 8
  %tobool = icmp ne ptr %0, null
  br i1 %tobool, label %if.end, label %if.then

if.then:                                          ; preds = %entry
  br label %return

if.end:                                           ; preds = %entry
  %1 = load ptr, ptr %sig.addr, align 8
  %r = getelementptr inbounds %struct.DSA_SIG_st, ptr %1, i32 0, i32 0
  %2 = load ptr, ptr %r, align 8
  call void @BN_free(ptr noundef %2)
  %3 = load ptr, ptr %sig.addr, align 8
  %s = getelementptr inbounds %struct.DSA_SIG_st, ptr %3, i32 0, i32 1
  %4 = load ptr, ptr %s, align 8
  call void @BN_free(ptr noundef %4)
  %5 = load ptr, ptr %sig.addr, align 8
  call void @free(ptr noundef %5) #8
  br label %return

return:                                           ; preds = %if.end, %if.then
  ret void
}

; Function Attrs: nounwind uwtable
define hidden ptr @DSA_SIG_new() #0 {
entry:
  %retval = alloca ptr, align 8
  %sig = alloca ptr, align 8
  %call = call noalias ptr @malloc(i64 noundef 16) #7
  store ptr %call, ptr %sig, align 8
  %0 = load ptr, ptr %sig, align 8
  %tobool = icmp ne ptr %0, null
  br i1 %tobool, label %if.end, label %if.then

if.then:                                          ; preds = %entry
  store ptr null, ptr %retval, align 8
  br label %return

if.end:                                           ; preds = %entry
  %1 = load ptr, ptr %sig, align 8
  %r = getelementptr inbounds %struct.DSA_SIG_st, ptr %1, i32 0, i32 0
  store ptr null, ptr %r, align 8
  %2 = load ptr, ptr %sig, align 8
  %s = getelementptr inbounds %struct.DSA_SIG_st, ptr %2, i32 0, i32 1
  store ptr null, ptr %s, align 8
  %3 = load ptr, ptr %sig, align 8
  store ptr %3, ptr %retval, align 8
  br label %return

return:                                           ; preds = %if.end, %if.then
  %4 = load ptr, ptr %retval, align 8
  ret ptr %4
}

; Function Attrs: nounwind uwtable
define hidden i32 @DSA_check_signature(ptr noundef %out_valid, ptr noundef %digest, i64 noundef %digest_len, ptr noundef %sig, i64 noundef %sig_len, ptr noundef %dsa) #0 {
entry:
  %out_valid.addr = alloca ptr, align 8
  %digest.addr = alloca ptr, align 8
  %digest_len.addr = alloca i64, align 8
  %sig.addr = alloca ptr, align 8
  %sig_len.addr = alloca i64, align 8
  %dsa.addr = alloca ptr, align 8
  %s = alloca ptr, align 8
  %ret = alloca i32, align 4
  %der = alloca ptr, align 8
  %sigp = alloca ptr, align 8
  %der_len = alloca i32, align 4
  store ptr %out_valid, ptr %out_valid.addr, align 8
  store ptr %digest, ptr %digest.addr, align 8
  store i64 %digest_len, ptr %digest_len.addr, align 8
  store ptr %sig, ptr %sig.addr, align 8
  store i64 %sig_len, ptr %sig_len.addr, align 8
  store ptr %dsa, ptr %dsa.addr, align 8
  store ptr null, ptr %s, align 8
  store i32 0, ptr %ret, align 4
  store ptr null, ptr %der, align 8
  %call = call ptr @DSA_SIG_new()
  store ptr %call, ptr %s, align 8
  %0 = load ptr, ptr %s, align 8
  %cmp = icmp eq ptr %0, null
  br i1 %cmp, label %if.then, label %if.end

if.then:                                          ; preds = %entry
  br label %err

if.end:                                           ; preds = %entry
  %1 = load ptr, ptr %sig.addr, align 8
  store ptr %1, ptr %sigp, align 8
  %2 = load i64, ptr %sig_len.addr, align 8
  %call1 = call ptr @d2i_DSA_SIG(ptr noundef %s, ptr noundef %sigp, i64 noundef %2)
  %cmp2 = icmp eq ptr %call1, null
  br i1 %cmp2, label %if.then4, label %lor.lhs.false

lor.lhs.false:                                    ; preds = %if.end
  %3 = load ptr, ptr %sigp, align 8
  %4 = load ptr, ptr %sig.addr, align 8
  %5 = load i64, ptr %sig_len.addr, align 8
  %add.ptr = getelementptr inbounds i8, ptr %4, i64 %5
  %cmp3 = icmp ne ptr %3, %add.ptr
  br i1 %cmp3, label %if.then4, label %if.end5

if.then4:                                         ; preds = %lor.lhs.false, %if.end
  br label %err

if.end5:                                          ; preds = %lor.lhs.false
  %6 = load ptr, ptr %s, align 8
  %call6 = call i32 @i2d_DSA_SIG(ptr noundef %6, ptr noundef %der)
  store i32 %call6, ptr %der_len, align 4
  %7 = load i32, ptr %der_len, align 4
  %cmp7 = icmp slt i32 %7, 0
  br i1 %cmp7, label %if.then13, label %lor.lhs.false8

lor.lhs.false8:                                   ; preds = %if.end5
  %8 = load i32, ptr %der_len, align 4
  %conv = sext i32 %8 to i64
  %9 = load i64, ptr %sig_len.addr, align 8
  %cmp9 = icmp ne i64 %conv, %9
  br i1 %cmp9, label %if.then13, label %lor.lhs.false11

lor.lhs.false11:                                  ; preds = %lor.lhs.false8
  %10 = load ptr, ptr %sig.addr, align 8
  %11 = load ptr, ptr %der, align 8
  %12 = load i64, ptr %sig_len.addr, align 8
  %call12 = call i32 @memcmp(ptr noundef %10, ptr noundef %11, i64 noundef %12) #9
  %tobool = icmp ne i32 %call12, 0
  br i1 %tobool, label %if.then13, label %if.end14

if.then13:                                        ; preds = %lor.lhs.false11, %lor.lhs.false8, %if.end5
  br label %err

if.end14:                                         ; preds = %lor.lhs.false11
  %13 = load ptr, ptr %out_valid.addr, align 8
  %14 = load ptr, ptr %digest.addr, align 8
  %15 = load i64, ptr %digest_len.addr, align 8
  %16 = load ptr, ptr %s, align 8
  %17 = load ptr, ptr %dsa.addr, align 8
  %call15 = call i32 @DSA_do_check_signature(ptr noundef %13, ptr noundef %14, i64 noundef %15, ptr noundef %16, ptr noundef %17)
  store i32 %call15, ptr %ret, align 4
  br label %err

err:                                              ; preds = %if.end14, %if.then13, %if.then4, %if.then
  %18 = load ptr, ptr %der, align 8
  call void @free(ptr noundef %18) #8
  %19 = load ptr, ptr %s, align 8
  call void @DSA_SIG_free(ptr noundef %19)
  %20 = load i32, ptr %ret, align 4
  ret i32 %20
}