; Function Attrs: nounwind uwtable
define hidden range(i32 0, 2) i32 @DSA_check_signature(ptr noundef writeonly captures(none) %out_valid, ptr noundef %digest, i64 noundef %digest_len, ptr noundef %sig, i64 noundef %sig_len, ptr noundef %dsa) local_unnamed_addr #0 {
entry:
  %s = alloca ptr, align 8
  %der = alloca ptr, align 8
  %sigp = alloca ptr, align 8
  store ptr null, ptr %der, align 8
  %calloc.i = tail call dereferenceable_or_null(16) ptr @calloc(i64 1, i64 16)
  %tobool.not.i = icmp eq ptr %calloc.i, null
  store ptr %calloc.i, ptr %s, align 8
  br i1 %tobool.not.i, label %err, label %if.end

if.end:                                           ; preds = %entry
  store ptr %sig, ptr %sigp, align 8
  %call1 = call ptr @d2i_DSA_SIG(ptr noundef nonnull %s, ptr noundef nonnull %sigp, i64 noundef %sig_len) #8
  %cmp2 = icmp ne ptr %call1, null
  %0 = load ptr, ptr %sigp, align 8
  %add.ptr = getelementptr inbounds i8, ptr %sig, i64 %sig_len
  %cmp3.not = icmp eq ptr %0, %add.ptr
  %or.cond = select i1 %cmp2, i1 %cmp3.not, i1 false
  br i1 %or.cond, label %if.end5, label %err

if.end5:                                          ; preds = %if.end
  %1 = load ptr, ptr %s, align 8
  %call6 = call i32 @i2d_DSA_SIG(ptr noundef %1, ptr noundef nonnull %der) #8
  %cmp7 = icmp sgt i32 %call6, -1
  %conv = zext nneg i32 %call6 to i64
  %cmp9.not = icmp eq i64 %sig_len, %conv
  %or.cond7 = select i1 %cmp7, i1 %cmp9.not, i1 false
  %.pre10 = load ptr, ptr %der, align 8
  br i1 %or.cond7, label %lor.lhs.false11, label %err

lor.lhs.false11:                                  ; preds = %if.end5
  %bcmp = call i32 @bcmp(ptr %sig, ptr %.pre10, i64 %sig_len)
  %tobool.not = icmp eq i32 %bcmp, 0
  br i1 %tobool.not, label %if.end14, label %err

if.end14:                                         ; preds = %lor.lhs.false11
  %2 = load ptr, ptr %s, align 8
  %call15 = call i32 @DSA_do_check_signature(ptr noundef %out_valid, ptr noundef %digest, i64 noundef %digest_len, ptr noundef %2, ptr noundef %dsa)
  %.pre = load ptr, ptr %der, align 8
  br label %err

err:                                              ; preds = %if.end5, %lor.lhs.false11, %if.end, %entry, %if.end14
  %3 = phi ptr [ null, %entry ], [ null, %if.end ], [ %.pre10, %if.end5 ], [ %.pre10, %lor.lhs.false11 ], [ %.pre, %if.end14 ]
  %ret.0 = phi i32 [ 0, %entry ], [ 0, %if.end ], [ 0, %if.end5 ], [ 0, %lor.lhs.false11 ], [ %call15, %if.end14 ]
  call void @free(ptr noundef %3) #8
  %4 = load ptr, ptr %s, align 8
  %tobool.not.i8 = icmp eq ptr %4, null
  br i1 %tobool.not.i8, label %DSA_SIG_free.exit, label %if.end.i9

if.end.i9:                                        ; preds = %err
  %5 = load ptr, ptr %4, align 8
  call void @BN_free(ptr noundef %5) #8
  %s.i = getelementptr inbounds nuw i8, ptr %4, i64 8
  %6 = load ptr, ptr %s.i, align 8
  call void @BN_free(ptr noundef %6) #8
  call void @free(ptr noundef nonnull %4) #8
  br label %DSA_SIG_free.exit

DSA_SIG_free.exit:                                ; preds = %err, %if.end.i9
  ret i32 %ret.0
}